target datalayout = "e-m:e-p270:32:32-p271:32:32-p272:64:64-i64:64-i128:128-f80:128-n8:16:32:64-S128"
target triple = "x86_64-pc-linux-gnu"

%struct._asn1_ctx_t = type { i32, i32, i8, ptr, ptr, ptr, ptr, ptr, %struct.anon, %struct.anon.2, %struct.anon.3, ptr }
%struct.anon = type { i32, i8, i8, i8, ptr, ptr, i32, i32, ptr, ptr, ptr, %union.anon }
%union.anon = type { %struct.anon.0 }
%struct.anon.0 = type { ptr }
%struct.anon.2 = type { ptr, ptr, ptr }
%struct.anon.3 = type { i32, i8, ptr, i32, i32, ptr, ptr, ptr, %union.anon.4 }
%union.anon.4 = type { %struct.anon.5 }
%struct.anon.5 = type { ptr }
%struct.f1ap_private_data_t = type { i32, i32, i32, i32, ptr, i32, i32, i32, i32, ptr }

@ett_f1ap_PLMN_Identity = internal global i32 0, align 4
@proto_f1ap = internal global i32 0, align 4

; Function Attrs: null_pointer_is_valid sspstrong uwtable
define internal ptr @f1ap_get_private_data(ptr noundef %0) #0 {
  %2 = alloca ptr, align 8
  %3 = alloca ptr, align 8
  store ptr %0, ptr %2, align 8
  call void @llvm.lifetime.start.p0(i64 8, ptr %3) #5
  %4 = call ptr @wmem_file_scope()
  %5 = load ptr, ptr %2, align 8
  %6 = load i32, ptr @proto_f1ap, align 4
  %7 = call ptr @p_get_proto_data(ptr noundef %4, ptr noundef %5, i32 noundef %6, i32 noundef 0)
  store ptr %7, ptr %3, align 8
  %8 = load ptr, ptr %3, align 8
  %9 = icmp ne ptr %8, null
  br i1 %9, label %21, label %10

10:                                               ; preds = %1
  %11 = call ptr @wmem_file_scope()
  %12 = call noalias ptr @wmem_alloc0(ptr noundef %11, i64 noundef 48) #6
  store ptr %12, ptr %3, align 8
  %13 = load ptr, ptr %3, align 8
  %14 = getelementptr inbounds nuw %struct.f1ap_private_data_t, ptr %13, i32 0, i32 6
  store i32 -1, ptr %14, align 4
  %15 = load ptr, ptr %3, align 8
  %16 = getelementptr inbounds nuw %struct.f1ap_private_data_t, ptr %15, i32 0, i32 7
  store i32 1, ptr %16, align 8
  %17 = call ptr @wmem_file_scope()
  %18 = load ptr, ptr %2, align 8
  %19 = load i32, ptr @proto_f1ap, align 4
  %20 = load ptr, ptr %3, align 8
  call void @p_add_proto_data(ptr noundef %17, ptr noundef %18, i32 noundef %19, i32 noundef 0, ptr noundef %20)
  br label %21

21:                                               ; preds = %10, %1
  %22 = load ptr, ptr %3, align 8
  call void @llvm.lifetime.end.p0(i64 8, ptr %3) #5
  ret ptr %22
}

; Function Attrs: null_pointer_is_valid sspstrong uwtable
define internal i32 @dissect_f1ap_PLMN_Identity(ptr noundef %0, i32 noundef %1, ptr noundef %2, ptr noundef %3, i32 noundef %4) #0 {
  %6 = alloca ptr, align 8
  %7 = alloca i32, align 4
  %8 = alloca ptr, align 8
  %9 = alloca ptr, align 8
  %10 = alloca i32, align 4
  %11 = alloca ptr, align 8
  %12 = alloca ptr, align 8
  %13 = alloca i32, align 4
  %14 = alloca ptr, align 8
  store ptr %0, ptr %6, align 8
  store i32 %1, ptr %7, align 4
  store ptr %2, ptr %8, align 8
  store ptr %3, ptr %9, align 8
  store i32 %4, ptr %10, align 4
  call void @llvm.lifetime.start.p0(i64 8, ptr %11) #5
  store ptr null, ptr %11, align 8
  call void @llvm.lifetime.start.p0(i64 8, ptr %12) #5
  %15 = load ptr, ptr %8, align 8
  %16 = getelementptr inbounds nuw %struct._asn1_ctx_t, ptr %15, i32 0, i32 3
  %17 = load ptr, ptr %16, align 8
  %18 = call ptr @f1ap_get_private_data(ptr noundef %17)
  store ptr %18, ptr %12, align 8
  call void @llvm.lifetime.start.p0(i64 4, ptr %13) #5
  %19 = load ptr, ptr %12, align 8
  %20 = getelementptr inbounds nuw %struct.f1ap_private_data_t, ptr %19, i32 0, i32 8
  %21 = load i32, ptr %20, align 4
  store i32 %21, ptr %13, align 4
  %22 = load ptr, ptr %12, align 8
  %23 = getelementptr inbounds nuw %struct.f1ap_private_data_t, ptr %22, i32 0, i32 8
  store i32 0, ptr %23, align 4
  %24 = load ptr, ptr %6, align 8
  %25 = load i32, ptr %7, align 4
  %26 = load ptr, ptr %8, align 8
  %27 = load ptr, ptr %9, align 8
  %28 = load i32, ptr %10, align 4
  %29 = call i32 @dissect_per_octet_string(ptr noundef %24, i32 noundef %25, ptr noundef %26, ptr noundef %27, i32 noundef %28, i32 noundef 3, i32 noundef 3, i1 noundef zeroext false, ptr noundef %11)
  store i32 %29, ptr %7, align 4
  %30 = load ptr, ptr %11, align 8
  %31 = icmp ne ptr %30, null
  br i1 %31, label %32, label %45

32:                                               ; preds = %5
  call void @llvm.lifetime.start.p0(i64 8, ptr %14) #5
  %33 = load ptr, ptr %8, align 8
  %34 = getelementptr inbounds nuw %struct._asn1_ctx_t, ptr %33, i32 0, i32 4
  %35 = load ptr, ptr %34, align 8
  %36 = load i32, ptr @ett_f1ap_PLMN_Identity, align 4
  %37 = call ptr @proto_item_add_subtree(ptr noundef %35, i32 noundef %36)
  store ptr %37, ptr %14, align 8
  %38 = load ptr, ptr %11, align 8
  %39 = load ptr, ptr %8, align 8
  %40 = getelementptr inbounds nuw %struct._asn1_ctx_t, ptr %39, i32 0, i32 3
  %41 = load ptr, ptr %40, align 8
  %42 = load ptr, ptr %14, align 8
  %43 = load i32, ptr %13, align 4
  %44 = call i32 @dissect_e212_mcc_mnc(ptr noundef %38, ptr noundef %41, ptr noundef %42, i32 noundef 0, i32 noundef %43, i1 noundef zeroext false)
  call void @llvm.lifetime.end.p0(i64 8, ptr %14) #5
  br label %45

45:                                               ; preds = %32, %5
  %46 = load i32, ptr %7, align 4
  call void @llvm.lifetime.end.p0(i64 4, ptr %13) #5
  call void @llvm.lifetime.end.p0(i64 8, ptr %12) #5
  call void @llvm.lifetime.end.p0(i64 8, ptr %11) #5
  ret i32 %46
}