; Function Attrs: null_pointer_is_valid sspstrong uwtable
define internal i32 @dissect_f1ap_PLMN_Identity(ptr noundef %0, i32 noundef %1, ptr noundef %2, ptr noundef %3, i32 noundef %4) #0 {
  %6 = alloca ptr, align 8
  call void @llvm.lifetime.start.p0(i64 8, ptr nonnull %6) #6
  store ptr null, ptr %6, align 8
  %7 = getelementptr inbounds nuw i8, ptr %2, i64 16
  %8 = load ptr, ptr %7, align 8
  %9 = tail call ptr @wmem_file_scope()
  %10 = load i32, ptr @proto_f1ap, align 4
  %11 = tail call ptr @p_get_proto_data(ptr noundef %9, ptr noundef %8, i32 noundef %10, i32 noundef 0)
  %.not.i = icmp eq ptr %11, null
  br i1 %.not.i, label %12, label %f1ap_get_private_data.exit

12:                                               ; preds = %5
  %13 = tail call ptr @wmem_file_scope()
  %14 = tail call noalias dereferenceable_or_null(48) ptr @wmem_alloc0(ptr noundef %13, i64 noundef 48) #7
  %15 = getelementptr inbounds nuw i8, ptr %14, i64 28
  store i32 -1, ptr %15, align 4
  %16 = getelementptr inbounds nuw i8, ptr %14, i64 32
  store i32 1, ptr %16, align 8
  %17 = tail call ptr @wmem_file_scope()
  %18 = load i32, ptr @proto_f1ap, align 4
  tail call void @p_add_proto_data(ptr noundef %17, ptr noundef %8, i32 noundef %18, i32 noundef 0, ptr noundef %14)
  br label %f1ap_get_private_data.exit

f1ap_get_private_data.exit:                       ; preds = %5, %12
  %.0.i = phi ptr [ %11, %5 ], [ %14, %12 ]
  %19 = getelementptr inbounds nuw i8, ptr %.0.i, i64 36
  %20 = load i32, ptr %19, align 4
  store i32 0, ptr %19, align 4
  %21 = call i32 @dissect_per_octet_string(ptr noundef %0, i32 noundef %1, ptr noundef %2, ptr noundef %3, i32 noundef %4, i32 noundef 3, i32 noundef 3, i1 noundef zeroext false, ptr noundef nonnull %6)
  %22 = load ptr, ptr %6, align 8
  %.not = icmp eq ptr %22, null
  br i1 %.not, label %31, label %23

23:                                               ; preds = %f1ap_get_private_data.exit
  %24 = getelementptr inbounds nuw i8, ptr %2, i64 24
  %25 = load ptr, ptr %24, align 8
  %26 = load i32, ptr @ett_f1ap_PLMN_Identity, align 4
  %27 = call ptr @proto_item_add_subtree(ptr noundef %25, i32 noundef %26)
  %28 = load ptr, ptr %6, align 8
  %29 = load ptr, ptr %7, align 8
  %30 = call i32 @dissect_e212_mcc_mnc(ptr noundef %28, ptr noundef %29, ptr noundef %27, i32 noundef 0, i32 noundef %20, i1 noundef zeroext false)
  br label %31

31:                                               ; preds = %23, %f1ap_get_private_data.exit
  call void @llvm.lifetime.end.p0(i64 8, ptr nonnull %6) #6
  ret i32 %21
}